; Function Attrs: nounwind uwtable
define hidden void @uv__platform_loop_delete(ptr noundef %0) local_unnamed_addr #0 {
  %2 = getelementptr inbounds nuw i8, ptr %0, i64 40
  %3 = load ptr, ptr %2, align 8
  %4 = getelementptr inbounds nuw i8, ptr %3, i64 312
  %5 = load i32, ptr %4, align 8
  %6 = icmp sgt i32 %5, -1
  br i1 %6, label %7, label %uv__iou_delete.exit

7:                                                ; preds = %1
  %8 = getelementptr inbounds nuw i8, ptr %3, i64 256
  %9 = load ptr, ptr %8, align 8
  %10 = getelementptr inbounds nuw i8, ptr %3, i64 296
  %11 = load i64, ptr %10, align 8
  %12 = tail call i32 @munmap(ptr noundef %9, i64 noundef %11) #17
  %13 = getelementptr inbounds nuw i8, ptr %3, i64 272
  %14 = load ptr, ptr %13, align 8
  %15 = getelementptr inbounds nuw i8, ptr %3, i64 304
  %16 = load i64, ptr %15, align 8
  %17 = tail call i32 @munmap(ptr noundef %14, i64 noundef %16) #17
  %18 = load i32, ptr %4, align 8
  %19 = tail call i32 @uv__close(i32 noundef %18) #17
  store i32 -1, ptr %4, align 8
  br label %uv__iou_delete.exit

uv__iou_delete.exit:                              ; preds = %1, %7
  %20 = getelementptr inbounds nuw i8, ptr %3, i64 432
  %21 = load i32, ptr %20, align 8
  %22 = icmp sgt i32 %21, -1
  br i1 %22, label %23, label %uv__iou_delete.exit8

23:                                               ; preds = %uv__iou_delete.exit
  %24 = getelementptr inbounds nuw i8, ptr %3, i64 376
  %25 = load ptr, ptr %24, align 8
  %26 = getelementptr inbounds nuw i8, ptr %3, i64 416
  %27 = load i64, ptr %26, align 8
  %28 = tail call i32 @munmap(ptr noundef %25, i64 noundef %27) #17
  %29 = getelementptr inbounds nuw i8, ptr %3, i64 392
  %30 = load ptr, ptr %29, align 8
  %31 = getelementptr inbounds nuw i8, ptr %3, i64 424
  %32 = load i64, ptr %31, align 8
  %33 = tail call i32 @munmap(ptr noundef %30, i64 noundef %32) #17
  %34 = load i32, ptr %20, align 8
  %35 = tail call i32 @uv__close(i32 noundef %34) #17
  store i32 -1, ptr %20, align 8
  br label %uv__iou_delete.exit8

uv__iou_delete.exit8:                             ; preds = %uv__iou_delete.exit, %23
  %36 = getelementptr inbounds nuw i8, ptr %0, i64 840
  %37 = load i32, ptr %36, align 8
  %.not = icmp eq i32 %37, -1
  br i1 %.not, label %42, label %38

38:                                               ; preds = %uv__iou_delete.exit8
  %39 = getelementptr inbounds nuw i8, ptr %0, i64 776
  tail call void @uv__io_stop(ptr noundef nonnull %0, ptr noundef nonnull %39, i32 noundef 1) #17
  %40 = load i32, ptr %36, align 8
  %41 = tail call i32 @uv__close(i32 noundef %40) #17
  store i32 -1, ptr %36, align 8
  br label %42

42:                                               ; preds = %38, %uv__iou_delete.exit8
  ret void
}